target datalayout = "e-m:e-p270:32:32-p271:32:32-p272:64:64-i64:64-i128:128-f80:128-n8:16:32:64-S128"
target triple = "x86_64-pc-linux-gnu"

%struct.startup_info = type { i32, ptr, ptr }

@startup_info = external global ptr, align 8

; Function Attrs: nounwind uwtable
define dso_local i32 @repo_has_object_file_with_flags(ptr noundef %0, ptr noundef %1, i32 noundef %2) #0 {
  %4 = alloca i32, align 4
  %5 = alloca ptr, align 8
  %6 = alloca ptr, align 8
  %7 = alloca i32, align 4
  store ptr %0, ptr %5, align 8, !tbaa !19
  store ptr %1, ptr %6, align 8, !tbaa !14
  store i32 %2, ptr %7, align 4, !tbaa !43
  %8 = load ptr, ptr @startup_info, align 8, !tbaa !156
  %9 = getelementptr inbounds nuw %struct.startup_info, ptr %8, i32 0, i32 0
  %10 = load i32, ptr %9, align 8, !tbaa !158
  %11 = icmp ne i32 %10, 0
  br i1 %11, label %13, label %12

12:                                               ; preds = %3
  store i32 0, ptr %4, align 4
  br label %20

13:                                               ; preds = %3
  %14 = load ptr, ptr %5, align 8, !tbaa !19
  %15 = load ptr, ptr %6, align 8, !tbaa !14
  %16 = load i32, ptr %7, align 4, !tbaa !43
  %17 = call i32 @oid_object_info_extended(ptr noundef %14, ptr noundef %15, ptr noundef null, i32 noundef %16)
  %18 = icmp sge i32 %17, 0
  %19 = zext i1 %18 to i32
  store i32 %19, ptr %4, align 4
  br label %20

20:                                               ; preds = %13, %12
  %21 = load i32, ptr %4, align 4
  ret i32 %21
}

; Function Attrs: nounwind uwtable
define dso_local i32 @repo_has_object_file(ptr noundef %0, ptr noundef %1) #0 {
  %3 = alloca ptr, align 8
  %4 = alloca ptr, align 8
  store ptr %0, ptr %3, align 8, !tbaa !19
  store ptr %1, ptr %4, align 8, !tbaa !14
  %5 = load ptr, ptr %3, align 8, !tbaa !19
  %6 = load ptr, ptr %4, align 8, !tbaa !14
  %7 = call i32 @repo_has_object_file_with_flags(ptr noundef %5, ptr noundef %6, i32 noundef 0)
  ret i32 %7
}