; Function Attrs: nounwind uwtable
define dso_local range(i32 0, 2) i32 @repo_has_object_file(ptr noundef %0, ptr noundef %1) local_unnamed_addr #1 {
  %3 = load ptr, ptr @startup_info, align 8, !tbaa !143
  %4 = load i32, ptr %3, align 8, !tbaa !145
  %.not.i = icmp eq i32 %4, 0
  br i1 %.not.i, label %repo_has_object_file_with_flags.exit, label %5

5:                                                ; preds = %2
  %6 = tail call i32 @oid_object_info_extended(ptr noundef %0, ptr noundef %1, ptr noundef null, i32 noundef 0)
  %7 = icmp sgt i32 %6, -1
  %8 = zext i1 %7 to i32
  br label %repo_has_object_file_with_flags.exit

repo_has_object_file_with_flags.exit:             ; preds = %2, %5
  %.0.i = phi i32 [ %8, %5 ], [ 0, %2 ]
  ret i32 %.0.i
}